(lp0
V\u0430
p1
aV\u0435
p2
aV\u0438
p3
aV\u0436
p4
aV\u043c
p5
aV\u043e
p6
aV\u043d\u0430
p7
aV\u043d\u0435
p8
aV\u043d\u0438
p9
aV\u043e\u0431
p10
aV\u043d\u043e
p11
aV\u043e\u043d
p12
aV\u043c\u043d\u0435
p13
aV\u043c\u043e\u0438
p14
aV\u043c\u043e\u0436
p15
aV\u043e\u043d\u0430
p16
aV\u043e\u043d\u0438
p17
aV\u043e\u043d\u043e
p18
aV\u043c\u043d\u043e\u0439
p19
aV\u043c\u043d\u043e\u0433\u043e
p20
aV\u043c\u043d\u043e\u0433\u043e\u0447\u0438\u0441\u043b\u0435\u043d\u043d\u043e\u0435
p21
aV\u043c\u043d\u043e\u0433\u043e\u0447\u0438\u0441\u043b\u0435\u043d\u043d\u0430\u044f
p22
aV\u043c\u043d\u043e\u0433\u043e\u0447\u0438\u0441\u043b\u0435\u043d\u043d\u044b\u0435
p23
aV\u043c\u043d\u043e\u0433\u043e\u0447\u0438\u0441\u043b\u0435\u043d\u043d\u044b\u0439
p24
aV\u043c\u043d\u043e\u044e
p25
aV\u043c\u043e\u0439
p26
aV\u043c\u043e\u0433
p27
aV\u043c\u043e\u0433\u0443\u0442
p28
aV\u043c\u043e\u0436\u043d\u043e
p29
aV\u043c\u043e\u0436\u0435\u0442
p30
aV\u043c\u043e\u0436\u0445\u043e
p31
aV\u043c\u043e\u0440
p32
aV\u043c\u043e\u044f
p33
aV\u043c\u043e\u0451
p34
aV\u043c\u043e\u0447\u044c
p35
aV\u043d\u0430\u0434
p36
aV\u043d\u0435\u0435
p37
aV\u043e\u0431\u0430
p38
aV\u043d\u0430\u043c
p39
aV\u043d\u0435\u043c
p40
aV\u043d\u0430\u043c\u0438
p41
aV\u043d\u0438\u043c\u0438
p42
aV\u043c\u0438\u043c\u043e
p43
aV\u043d\u0435\u043c\u043d\u043e\u0433\u043e
p44
aV\u043e\u0434\u043d\u043e\u0439
p45
aV\u043e\u0434\u043d\u043e\u0433\u043e
p46
aV\u043c\u0435\u043d\u0435\u0435
p47
aV\u043e\u0434\u043d\u0430\u0436\u0434\u044b
p48
aV\u043e\u0434\u043d\u0430\u043a\u043e
p49
aV\u043c\u0435\u043d\u044f
p50
aV\u043d\u0435\u043c\u0443
p51
aV\u043c\u0435\u043d\u044c\u0448\u0435
p52
aV\u043d\u0435\u0439
p53
aV\u043d\u0430\u0432\u0435\u0440\u0445\u0443
p54
aV\u043d\u0435\u0433\u043e
p55
aV\u043d\u0438\u0436\u0435
p56
aV\u043c\u0430\u043b\u043e
p57
aV\u043d\u0430\u0434\u043e
p58
aV\u043e\u0434\u0438\u043d
p59
aV\u043e\u0434\u0438\u043d\u043d\u0430\u0434\u0446\u0430\u0442\u044c
p60
aV\u043e\u0434\u0438\u043d\u043d\u0430\u0434\u0446\u0430\u0442\u044b\u0439
p61
aV\u043d\u0430\u0437\u0430\u0434
p62
aV\u043d\u0430\u0438\u0431\u043e\u043b\u0435\u0435
p63
aV\u043d\u0435\u0434\u0430\u0432\u043d\u043e
p64
aV\u043c\u0438\u043b\u043b\u0438\u043e\u043d\u043e\u0432
p65
aV\u043d\u0435\u0434\u0430\u043b\u0435\u043a\u043e
p66
aV\u043c\u0435\u0436\u0434\u0443
p67
aV\u043d\u0438\u0437\u043a\u043e
p68
aV\u043c\u0435\u043b\u044f
p69
aV\u043d\u0435\u043b\u044c\u0437\u044f
p70
aV\u043d\u0438\u0431\u0443\u0434\u044c
p71
aV\u043d\u0435\u043f\u0440\u0435\u0440\u044b\u0432\u043d\u043e
p72
aV\u043d\u0430\u043a\u043e\u043d\u0435\u0446
p73
aV\u043d\u0438\u043a\u043e\u0433\u0434\u0430
p74
aV\u043d\u0438\u043a\u0443\u0434\u0430
p75
aV\u043d\u0430\u0441
p76
aV\u043d\u0430\u0448
p77
aV\u043d\u0435\u0442
p78
aV\u043d\u0435\u044e
p79
aV\u043d\u0435\u0451
p80
aV\u043d\u0438\u0445
p81
aV\u043c\u0438\u0440\u0430
p82
aV\u043d\u0430\u0448\u0430
p83
aV\u043d\u0430\u0448\u0435
p84
aV\u043d\u0430\u0448\u0438
p85
aV\u043d\u0438\u0447\u0435\u0433\u043e
p86
aV\u043d\u0430\u0447\u0430\u043b\u0430
p87
aV\u043d\u0435\u0440\u0435\u0434\u043a\u043e
p88
aV\u043d\u0435\u0441\u043a\u043e\u043b\u044c\u043a\u043e
p89
aV\u043e\u0431\u044b\u0447\u043d\u043e
p90
aV\u043e\u043f\u044f\u0442\u044c
p91
aV\u043e\u043a\u043e\u043b\u043e
p92
aV\u043c\u044b
p93
aV\u043d\u0443
p94
aV\u043d\u0445
p95
aV\u043e\u0442
p96
aV\u043e\u0442\u043e\u0432\u0441\u044e\u0434\u0443
p97
aV\u043e\u0441\u043e\u0431\u0435\u043d\u043d\u043e
p98
aV\u043d\u0443\u0436\u043d\u043e
p99
aV\u043e\u0447\u0435\u043d\u044c
p100
aV\u043e\u0442\u0441\u044e\u0434\u0430
p101
aV\u0432
p102
aV\u0432\u043e
p103
aV\u0432\u043e\u043d
p104
aV\u0432\u043d\u0438\u0437
p105
aV\u0432\u043d\u0438\u0437\u0443
p106
aV\u0432\u043e\u043a\u0440\u0443\u0433
p107
aV\u0432\u043e\u0442
p108
aV\u0432\u043e\u0441\u0435\u043c\u043d\u0430\u0434\u0446\u0430\u0442\u044c
p109
aV\u0432\u043e\u0441\u0435\u043c\u043d\u0430\u0434\u0446\u0430\u0442\u044b\u0439
p110
aV\u0432\u043e\u0441\u0435\u043c\u044c
p111
aV\u0432\u043e\u0441\u044c\u043c\u043e\u0439
p112
aV\u0432\u0432\u0435\u0440\u0445
p113
aV\u0432\u0430\u043c
p114
aV\u0432\u0430\u043c\u0438
p115
aV\u0432\u0430\u0436\u043d\u043e\u0435
p116
aV\u0432\u0430\u0436\u043d\u0430\u044f
p117
aV\u0432\u0430\u0436\u043d\u044b\u0435
p118
aV\u0432\u0430\u0436\u043d\u044b\u0439
p119
aV\u0432\u0434\u0430\u043b\u0438
p120
aV\u0432\u0435\u0437\u0434\u0435
p121
aV\u0432\u0435\u0434\u044c
p122
aV\u0432\u0430\u0441
p123
aV\u0432\u0430\u0448
p124
aV\u0432\u0430\u0448\u0430
p125
aV\u0432\u0430\u0448\u0435
p126
aV\u0432\u0430\u0448\u0438
p127
aV\u0432\u043f\u0440\u043e\u0447\u0435\u043c
p128
aV\u0432\u0435\u0441\u044c
p129
aV\u0432\u0434\u0440\u0443\u0433
p130
aV\u0432\u044b
p131
aV\u0432\u0441\u0435
p132
aV\u0432\u0442\u043e\u0440\u043e\u0439
p133
aV\u0432\u0441\u0435\u043c
p134
aV\u0432\u0441\u0435\u043c\u0438
p135
aV\u0432\u0440\u0435\u043c\u0435\u043d\u0438
p136
aV\u0432\u0440\u0435\u043c\u044f
p137
aV\u0432\u0441\u0435\u043c\u0443
p138
aV\u0432\u0441\u0435\u0433\u043e
p139
aV\u0432\u0441\u0435\u0433\u0434\u0430
p140
aV\u0432\u0441\u0435\u0445
p141
aV\u0432\u0441\u0435\u044e
p142
aV\u0432\u0441\u044e
p143
aV\u0432\u0441\u044f
p144
aV\u0432\u0441\u0451
p145
aV\u0432\u0441\u044e\u0434\u0443
p146
aV\u0433
p147
aV\u0433\u043e\u0434
p148
aV\u0433\u043e\u0432\u043e\u0440\u0438\u043b
p149
aV\u0433\u043e\u0432\u043e\u0440\u0438\u0442
p150
aV\u0433\u043e\u0434\u0430
p151
aV\u0433\u043e\u0434\u0443
p152
aV\u0433\u0434\u0435
p153
aV\u0434\u0430
p154
aV\u0435\u0435
p155
aV\u0437\u0430
p156
aV\u0438\u0437
p157
aV\u043b\u0438
p158
aV\u0436\u0435
p159
aV\u0438\u043c
p160
aV\u0434\u043e
p161
aV\u043f\u043e
p162
aV\u0438\u043c\u0438
p163
aV\u043f\u043e\u0434
p164
aV\u0438\u043d\u043e\u0433\u0434\u0430
p165
aV\u0434\u043e\u0432\u043e\u043b\u044c\u043d\u043e
p166
aV\u0438\u043c\u0435\u043d\u043d\u043e
p167
aV\u0434\u043e\u043b\u0433\u043e
p168
aV\u043f\u043e\u0437\u0436\u0435
p169
aV\u0431\u043e\u043b\u0435\u0435
p170
aV\u0434\u043e\u043b\u0436\u043d\u043e
p171
aV\u043f\u043e\u0436\u0430\u043b\u0443\u0439\u0441\u0442\u0430
p172
aV\u0437\u043d\u0430\u0447\u0438\u0442
p173
aV\u0438\u043c\u0435\u0442\u044c
p174
aV\u0431\u043e\u043b\u044c\u0448\u0435
p175
aV\u043f\u043e\u043a\u0430
p176
aV\u0435\u043c\u0443
p177
aV\u0438\u043c\u044f
p178
aV\u043f\u043e\u0440
p179
aV\u043f\u043e\u0440\u0430
p180
aV\u043f\u043e\u0442\u043e\u043c
p181
aV\u043f\u043e\u0442\u043e\u043c\u0443
p182
aV\u043f\u043e\u0441\u043b\u0435
p183
aV\u043f\u043e\u0447\u0435\u043c\u0443
p184
aV\u043f\u043e\u0447\u0442\u0438
p185
aV\u043f\u043e\u0441\u0440\u0435\u0434\u0438
p186
aV\u0435\u0439
p187
aV\u0434\u0432\u0430
p188
aV\u0434\u0432\u0435
p189
aV\u0434\u0432\u0435\u043d\u0430\u0434\u0446\u0430\u0442\u044c
p190
aV\u0434\u0432\u0435\u043d\u0430\u0434\u0446\u0430\u0442\u044b\u0439
p191
aV\u0434\u0432\u0430\u0434\u0446\u0430\u0442\u044c
p192
aV\u0434\u0432\u0430\u0434\u0446\u0430\u0442\u044b\u0439
p193
aV\u0434\u0432\u0443\u0445
p194
aV\u0435\u0433\u043e
p195
aV\u0434\u0435\u043b
p196
aV\u0438\u043b\u0438
p197
aV\u0431\u0435\u0437
p198
aV\u0434\u0435\u043d\u044c
p199
aV\u0437\u0430\u043d\u044f\u0442
p200
aV\u0437\u0430\u043d\u044f\u0442\u0430
p201
aV\u0437\u0430\u043d\u044f\u0442\u043e
p202
aV\u0437\u0430\u043d\u044f\u0442\u044b
p203
aV\u0434\u0435\u0439\u0441\u0442\u0432\u0438\u0442\u0435\u043b\u044c\u043d\u043e
p204
aV\u0434\u0430\u0432\u043d\u043e
p205
aV\u0434\u0435\u0432\u044f\u0442\u043d\u0430\u0434\u0446\u0430\u0442\u044c
p206
aV\u0434\u0435\u0432\u044f\u0442\u043d\u0430\u0434\u0446\u0430\u0442\u044b\u0439
p207
aV\u0434\u0435\u0432\u044f\u0442\u044c
p208
aV\u0434\u0435\u0432\u044f\u0442\u044b\u0439
p209
aV\u0434\u0430\u0436\u0435
p210
aV\u0430\u043b\u043b\u043e
p211
aV\u0436\u0438\u0437\u043d\u044c
p212
aV\u0434\u0430\u043b\u0435\u043a\u043e
p213
aV\u0431\u043b\u0438\u0437\u043a\u043e
p214
aV\u0437\u0434\u0435\u0441\u044c
p215
aV\u0434\u0430\u043b\u044c\u0448\u0435
p216
aV\u0434\u043b\u044f
p217
aV\u043b\u0435\u0442
p218
aV\u0437\u0430\u0442\u043e
p219
aV\u0434\u0430\u0440\u043e\u043c
p220
aV\u043f\u0435\u0440\u0432\u044b\u0439
p221
aV\u043f\u0435\u0440\u0435\u0434
p222
aV\u0437\u0430\u0442\u0435\u043c
p223
aV\u0437\u0430\u0447\u0435\u043c
p224
aV\u043b\u0438\u0448\u044c
p225
aV\u0434\u0435\u0441\u044f\u0442\u044c
p226
aV\u0434\u0435\u0441\u044f\u0442\u044b\u0439
p227
aV\u0435\u044e
p228
aV\u0435\u0451
p229
aV\u0438\u0445
p230
aV\u0431\u044b
p231
aV\u0435\u0449\u0435
p232
aV\u043f\u0440\u0438
p233
aV\u0431\u044b\u043b
p234
aV\u043f\u0440\u043e
p235
aV\u043f\u0440\u043e\u0446\u0435\u043d\u0442\u043e\u0432
p236
aV\u043f\u0440\u043e\u0442\u0438\u0432
p237
aV\u043f\u0440\u043e\u0441\u0442\u043e
p238
aV\u0431\u044b\u0432\u0430\u0435\u0442
p239
aV\u0431\u044b\u0432\u044c
p240
aV\u0435\u0441\u043b\u0438
p241
aV\u043b\u044e\u0434\u0438
p242
aV\u0431\u044b\u043b\u0430
p243
aV\u0431\u044b\u043b\u0438
p244
aV\u0431\u044b\u043b\u043e
p245
aV\u0431\u0443\u0434\u0435\u043c
p246
aV\u0431\u0443\u0434\u0435\u0442
p247
aV\u0431\u0443\u0434\u0435\u0442\u0435
p248
aV\u0431\u0443\u0434\u0435\u0448\u044c
p249
aV\u043f\u0440\u0435\u043a\u0440\u0430\u0441\u043d\u043e
p250
aV\u0431\u0443\u0434\u0443
p251
aV\u0431\u0443\u0434\u044c
p252
aV\u0431\u0443\u0434\u0442\u043e
p253
aV\u0431\u0443\u0434\u0443\u0442
p254
aV\u0435\u0449\u0451
p255
aV\u043f\u044f\u0442\u043d\u0430\u0434\u0446\u0430\u0442\u044c
p256
aV\u043f\u044f\u0442\u043d\u0430\u0434\u0446\u0430\u0442\u044b\u0439
p257
aV\u0434\u0440\u0443\u0433\u043e
p258
aV\u0434\u0440\u0443\u0433\u043e\u0435
p259
aV\u0434\u0440\u0443\u0433\u043e\u0439
p260
aV\u0434\u0440\u0443\u0433\u0438\u0435
p261
aV\u0434\u0440\u0443\u0433\u0430\u044f
p262
aV\u0434\u0440\u0443\u0433\u0438\u0445
p263
aV\u0435\u0441\u0442\u044c
p264
aV\u043f\u044f\u0442\u044c
p265
aV\u0431\u044b\u0442\u044c
p266
aV\u043b\u0443\u0447\u0448\u0435
p267
aV\u043f\u044f\u0442\u044b\u0439
p268
aV\u043a
p269
aV\u043a\u043e\u043c
p270
aV\u043a\u043e\u043d\u0435\u0447\u043d\u043e
p271
aV\u043a\u043e\u043c\u0443
p272
aV\u043a\u043e\u0433\u043e
p273
aV\u043a\u043e\u0433\u0434\u0430
p274
aV\u043a\u043e\u0442\u043e\u0440\u043e\u0439
p275
aV\u043a\u043e\u0442\u043e\u0440\u043e\u0433\u043e
p276
aV\u043a\u043e\u0442\u043e\u0440\u0430\u044f
p277
aV\u043a\u043e\u0442\u043e\u0440\u044b\u0435
p278
aV\u043a\u043e\u0442\u043e\u0440\u044b\u0439
p279
aV\u043a\u043e\u0442\u043e\u0440\u044b\u0445
p280
aV\u043a\u0435\u043c
p281
aV\u043a\u0430\u0436\u0434\u043e\u0435
p282
aV\u043a\u0430\u0436\u0434\u0430\u044f
p283
aV\u043a\u0430\u0436\u0434\u044b\u0435
p284
aV\u043a\u0430\u0436\u0434\u044b\u0439
p285
aV\u043a\u0430\u0436\u0435\u0442\u0441\u044f
p286
aV\u043a\u0430\u043a
p287
aV\u043a\u0430\u043a\u043e\u0439
p288
aV\u043a\u0430\u043a\u0430\u044f
p289
aV\u043a\u0442\u043e
p290
aV\u043a\u0440\u043e\u043c\u0435
p291
aV\u043a\u0443\u0434\u0430
p292
aV\u043a\u0440\u0443\u0433\u043e\u043c
p293
aV\u0441
p294
aV\u0442
p295
aV\u0443
p296
aV\u044f
p297
aV\u0442\u0430
p298
aV\u0442\u0435
p299
aV\u0443\u0436
p300
aV\u0441\u043e
p301
aV\u0442\u043e
p302
aV\u0442\u043e\u043c
p303
aV\u0441\u043d\u043e\u0432\u0430
p304
aV\u0442\u043e\u043c\u0443
p305
aV\u0441\u043e\u0432\u0441\u0435\u043c
p306
aV\u0442\u043e\u0433\u043e
p307
aV\u0442\u043e\u0433\u0434\u0430
p308
aV\u0442\u043e\u0436\u0435
p309
aV\u0441\u043e\u0431\u043e\u0439
p310
aV\u0442\u043e\u0431\u043e\u0439
p311
aV\u0441\u043e\u0431\u043e\u044e
p312
aV\u0442\u043e\u0431\u043e\u044e
p313
aV\u0441\u043d\u0430\u0447\u0430\u043b\u0430
p314
aV\u0442\u043e\u043b\u044c\u043a\u043e
p315
aV\u0443\u043c\u0435\u0442\u044c
p316
aV\u0442\u043e\u0442
p317
aV\u0442\u043e\u044e
p318
aV\u0445\u043e\u0440\u043e\u0448\u043e
p319
aV\u0445\u043e\u0442\u0435\u0442\u044c
p320
aV\u0445\u043e\u0447\u0435\u0448\u044c
p321
aV\u0445\u043e\u0442\u044c
p322
aV\u0445\u043e\u0442\u044f
p323
aV\u0441\u0432\u043e\u0435
p324
aV\u0441\u0432\u043e\u0438
p325
aV\u0442\u0432\u043e\u0439
p326
aV\u0441\u0432\u043e\u0435\u0439
p327
aV\u0441\u0432\u043e\u0435\u0433\u043e
p328
aV\u0441\u0432\u043e\u0438\u0445
p329
aV\u0441\u0432\u043e\u044e
p330
aV\u0442\u0432\u043e\u044f
p331
aV\u0442\u0432\u043e\u0451
p332
aV\u0440\u0430\u0437
p333
aV\u0443\u0436\u0435
p334
aV\u0441\u0430\u043c
p335
aV\u0442\u0430\u043c
p336
aV\u0442\u0435\u043c
p337
aV\u0447\u0435\u043c
p338
aV\u0441\u0430\u043c\u0430
p339
aV\u0441\u0430\u043c\u0438
p340
aV\u0442\u0435\u043c\u0438
p341
aV\u0441\u0430\u043c\u043e
p342
aV\u0440\u0430\u043d\u043e
p343
aV\u0441\u0430\u043c\u043e\u043c
p344
aV\u0441\u0430\u043c\u043e\u043c\u0443
p345
aV\u0441\u0430\u043c\u043e\u0439
p346
aV\u0441\u0430\u043c\u043e\u0433\u043e
p347
aV\u0441\u0435\u043c\u043d\u0430\u0434\u0446\u0430\u0442\u044c
p348
aV\u0441\u0435\u043c\u043d\u0430\u0434\u0446\u0430\u0442\u044b\u0439
p349
aV\u0441\u0430\u043c\u0438\u043c
p350
aV\u0441\u0430\u043c\u0438\u043c\u0438
p351
aV\u0441\u0430\u043c\u0438\u0445
p352
aV\u0441\u0430\u043c\u0443
p353
aV\u0441\u0435\u043c\u044c
p354
aV\u0447\u0435\u043c\u0443
p355
aV\u0440\u0430\u043d\u044c\u0448\u0435
p356
aV\u0441\u0435\u0439\u0447\u0430\u0441
p357
aV\u0447\u0435\u0433\u043e
p358
aV\u0441\u0435\u0433\u043e\u0434\u043d\u044f
p359
aV\u0441\u0435\u0431\u0435
p360
aV\u0442\u0435\u0431\u0435
p361
aV\u0441\u0435\u0430\u043e\u0439
p362
aV\u0447\u0435\u043b\u043e\u0432\u0435\u043a
p363
aV\u0440\u0430\u0437\u0432\u0435
p364
aV\u0442\u0435\u043f\u0435\u0440\u044c
p365
aV\u0441\u0435\u0431\u044f
p366
aV\u0442\u0435\u0431\u044f
p367
aV\u0441\u0435\u0434\u044c\u043c\u043e\u0439
p368
aV\u0441\u043f\u0430\u0441\u0438\u0431\u043e
p369
aV\u0441\u043b\u0438\u0448\u043a\u043e\u043c
p370
aV\u0442\u0430\u043a
p371
aV\u0442\u0430\u043a\u043e\u0435
p372
aV\u0442\u0430\u043a\u043e\u0439
p373
aV\u0442\u0430\u043a\u0438\u0435
p374
aV\u0442\u0430\u043a\u0436\u0435
p375
aV\u0442\u0430\u043a\u0430\u044f
p376
aV\u0441\u0438\u0445
p377
aV\u0442\u0435\u0445
p378
aV\u0447\u0430\u0449\u0435
p379
aV\u0447\u0435\u0442\u0432\u0435\u0440\u0442\u044b\u0439
p380
aV\u0447\u0435\u0440\u0435\u0437
p381
aV\u0447\u0430\u0441\u0442\u043e
p382
aV\u0448\u0435\u0441\u0442\u043e\u0439
p383
aV\u0448\u0435\u0441\u0442\u043d\u0430\u0434\u0446\u0430\u0442\u044c
p384
aV\u0448\u0435\u0441\u0442\u043d\u0430\u0434\u0446\u0430\u0442\u044b\u0439
p385
aV\u0448\u0435\u0441\u0442\u044c
p386
aV\u0447\u0435\u0442\u044b\u0440\u0435
p387
aV\u0447\u0435\u0442\u044b\u0440\u043d\u0430\u0434\u0446\u0430\u0442\u044c
p388
aV\u0447\u0435\u0442\u044b\u0440\u043d\u0430\u0434\u0446\u0430\u0442\u044b\u0439
p389
aV\u0441\u043a\u043e\u043b\u044c\u043a\u043e
p390
aV\u0441\u043a\u0430\u0437\u0430\u043b
p391
aV\u0441\u043a\u0430\u0437\u0430\u043b\u0430
p392
aV\u0441\u043a\u0430\u0437\u0430\u0442\u044c
p393
aV\u0442\u0443
p394
aV\u0442\u044b
p395
aV\u0442\u0440\u0438
p396
aV\u044d\u0442\u0430
p397
aV\u044d\u0442\u0438
p398
aV\u0447\u0442\u043e
p399
aV\u044d\u0442\u043e
p400
aV\u0447\u0442\u043e\u0431
p401
aV\u044d\u0442\u043e\u043c
p402
aV\u044d\u0442\u043e\u043c\u0443
p403
aV\u044d\u0442\u043e\u0439
p404
aV\u044d\u0442\u043e\u0433\u043e
p405
aV\u0447\u0442\u043e\u0431\u044b
p406
aV\u044d\u0442\u043e\u0442
p407
aV\u0441\u0442\u0430\u043b
p408
aV\u0442\u0443\u0434\u0430
p409
aV\u044d\u0442\u0438\u043c
p410
aV\u044d\u0442\u0438\u043c\u0438
p411
aV\u0440\u044f\u0434\u043e\u043c
p412
aV\u0442\u0440\u0438\u043d\u0430\u0434\u0446\u0430\u0442\u044c
p413
aV\u0442\u0440\u0438\u043d\u0430\u0434\u0446\u0430\u0442\u044b\u0439
p414
aV\u044d\u0442\u0438\u0445
p415
aV\u0442\u0440\u0435\u0442\u0438\u0439
p416
aV\u0442\u0443\u0442
p417
aV\u044d\u0442\u0443
p418
aV\u0441\u0443\u0442\u044c
p419
aV\u0447\u0443\u0442\u044c
p420
aV\u0442\u044b\u0441\u044f\u0447
p421
a.